target datalayout = "e-m:e-p270:32:32-p271:32:32-p272:64:64-i64:64-i128:128-f80:128-n8:16:32:64-S128"
target triple = "x86_64-pc-linux-gnu"

%struct.Type_ = type { i32, ptr, ptr, ptr, %union.anon, ptr, ptr, %union.anon.1 }
%union.anon = type { ptr }
%union.anon.1 = type { %struct.TypeFunction }
%struct.TypeFunction = type { ptr, ptr, ptr }
%union.SourceSpan = type { i64 }
%struct.Decl_ = type { ptr, ptr, %union.SourceSpan, i64, %union.anon.3, i32, %union.anon.4, i64, ptr, ptr, ptr, %union.anon.5 }
%union.anon.3 = type { ptr }
%union.anon.4 = type { i16 }
%union.anon.5 = type { %struct.FuncDecl }
%struct.FuncDecl = type { i32, [4 x i8], %struct.Signature_, i32, i32, %union.anon.12 }
%struct.Signature_ = type <{ %struct.CalleeAttributes, i16, i8, i32, i32, [4 x i8], ptr }>
%struct.CalleeAttributes = type { i8 }
%union.anon.12 = type { %struct.anon.13 }
%struct.anon.13 = type { i16, %union.anon.14 }
%union.anon.14 = type { ptr }
%struct.anon.6 = type { ptr, ptr, %union.anon.7 }
%union.anon.7 = type { %struct.BitStructDecl }
%struct.BitStructDecl = type { ptr, ptr, i8 }
%struct.TypeInfo_ = type { i16, ptr, %union.SourceSpan, %union.anon.54 }
%union.anon.54 = type { %struct.anon.55 }
%struct.anon.55 = type { ptr, ptr }

@type_void = dso_local global ptr @t, align 8
@type_char = dso_local global ptr getelementptr (i8, ptr @t, i64 560), align 8
@.str = private unnamed_addr constant [36 x i8] c"FATAL ERROR %s -> in %s @ in %s:%d \00", align 1
@.str.17 = private unnamed_addr constant [22 x i8] c"Should be unreachable\00", align 1
@__func__.type_flatten = private unnamed_addr constant [13 x i8] c"type_flatten\00", align 1
@.str.54 = private unnamed_addr constant [118 x i8] c"generated/home/dtcxzyw/WorkSpace/Projects/compilers/llvm-opt-benchmark/bench/c3c/c3c/src/compiler/compiler_internal.h\00", align 1

; Function Attrs: nounwind uwtable
define dso_local zeroext i1 @type_is_matching_int(ptr noundef %0, ptr noundef %1) #0 {
  %3 = alloca i32, align 4
  %4 = alloca i32, align 4
  %5 = alloca i32, align 4
  %6 = alloca i1, align 1
  %7 = alloca ptr, align 8
  %8 = alloca ptr, align 8
  %9 = alloca i32, align 4
  %10 = alloca i32, align 4
  store ptr %0, ptr %7, align 8
  store ptr %1, ptr %8, align 8
  %11 = load ptr, ptr %7, align 8
  %12 = getelementptr inbounds %struct.Type_, ptr %11, i32 0, i32 0
  %13 = load i32, ptr %12, align 8
  store i32 %13, ptr %9, align 4
  %14 = load ptr, ptr %8, align 8
  %15 = getelementptr inbounds %struct.Type_, ptr %14, i32 0, i32 0
  %16 = load i32, ptr %15, align 8
  store i32 %16, ptr %10, align 4
  %17 = load i32, ptr %9, align 4
  %18 = load i32, ptr %10, align 4
  %19 = icmp eq i32 %17, %18
  br i1 %19, label %20, label %29

20:                                               ; preds = %2
  %21 = load i32, ptr %9, align 4
  store i32 %21, ptr %5, align 4
  %22 = load i32, ptr %5, align 4
  %23 = icmp uge i32 %22, 3
  br i1 %23, label %24, label %27

24:                                               ; preds = %20
  %25 = load i32, ptr %5, align 4
  %26 = icmp ule i32 %25, 12
  br label %27

27:                                               ; preds = %24, %20
  %28 = phi i1 [ false, %20 ], [ %26, %24 ]
  store i1 %28, ptr %6, align 1
  br label %58

29:                                               ; preds = %2
  %30 = load i32, ptr %9, align 4
  store i32 %30, ptr %4, align 4
  %31 = load i32, ptr %4, align 4
  %32 = icmp uge i32 %31, 3
  br i1 %32, label %33, label %36

33:                                               ; preds = %29
  %34 = load i32, ptr %4, align 4
  %35 = icmp ult i32 %34, 8
  br label %36

36:                                               ; preds = %33, %29
  %37 = phi i1 [ false, %29 ], [ %35, %33 ]
  br i1 %37, label %38, label %43

38:                                               ; preds = %36
  %39 = load i32, ptr %9, align 4
  %40 = add i32 %39, 5
  %41 = load i32, ptr %10, align 4
  %42 = icmp eq i32 %40, %41
  store i1 %42, ptr %6, align 1
  br label %58

43:                                               ; preds = %36
  %44 = load i32, ptr %9, align 4
  store i32 %44, ptr %3, align 4
  %45 = load i32, ptr %3, align 4
  %46 = icmp uge i32 %45, 8
  br i1 %46, label %47, label %50

47:                                               ; preds = %43
  %48 = load i32, ptr %3, align 4
  %49 = icmp ule i32 %48, 12
  br label %50

50:                                               ; preds = %47, %43
  %51 = phi i1 [ false, %43 ], [ %49, %47 ]
  br i1 %51, label %52, label %57

52:                                               ; preds = %50
  %53 = load i32, ptr %10, align 4
  %54 = add i32 %53, 5
  %55 = load i32, ptr %9, align 4
  %56 = icmp eq i32 %54, %55
  store i1 %56, ptr %6, align 1
  br label %58

57:                                               ; preds = %50
  store i1 false, ptr %6, align 1
  br label %58

58:                                               ; preds = %57, %52, %38, %27
  %59 = load i1, ptr %6, align 1
  ret i1 %59
}

; Function Attrs: nounwind uwtable
define internal ptr @type_flatten(ptr noundef %0) #0 {
  %2 = alloca ptr, align 8
  store ptr %0, ptr %2, align 8
  br label %3

3:                                                ; preds = %28, %1
  %4 = load ptr, ptr %2, align 8
  %5 = getelementptr inbounds %struct.Type_, ptr %4, i32 0, i32 1
  %6 = load ptr, ptr %5, align 8
  store ptr %6, ptr %2, align 8
  %7 = load ptr, ptr %2, align 8
  %8 = getelementptr inbounds %struct.Type_, ptr %7, i32 0, i32 0
  %9 = load i32, ptr %8, align 8
  switch i32 %9, label %26 [
    i32 32, label %10
    i32 40, label %19
    i32 31, label %23
  ]

10:                                               ; preds = %3
  %11 = load ptr, ptr %2, align 8
  %12 = getelementptr inbounds %struct.Type_, ptr %11, i32 0, i32 7
  %13 = load ptr, ptr %12, align 8
  %14 = getelementptr inbounds %struct.Decl_, ptr %13, i32 0, i32 11
  %15 = getelementptr inbounds %struct.anon.6, ptr %14, i32 0, i32 2
  %16 = load ptr, ptr %15, align 8
  %17 = getelementptr inbounds %struct.TypeInfo_, ptr %16, i32 0, i32 1
  %18 = load ptr, ptr %17, align 8
  store ptr %18, ptr %2, align 8
  br label %28

19:                                               ; preds = %3
  %20 = load ptr, ptr %2, align 8
  %21 = getelementptr inbounds %struct.Type_, ptr %20, i32 0, i32 7
  %22 = load ptr, ptr %21, align 8
  store ptr %22, ptr %2, align 8
  br label %28

23:                                               ; preds = %3
  br label %24

24:                                               ; preds = %23
  call void (ptr, ...) @error_exit(ptr noundef @.str, ptr noundef @.str.17, ptr noundef @__func__.type_flatten, ptr noundef @.str.54, i32 noundef 2984) #7
  unreachable

25:                                               ; No predecessors!
  br label %26

26:                                               ; preds = %25, %3
  %27 = load ptr, ptr %2, align 8
  ret ptr %27

28:                                               ; preds = %19, %10
  br label %3
}

; Function Attrs: nounwind uwtable
define dso_local i32 @type_array_element_is_equivalent(ptr noundef %0, ptr noundef %1, ptr noundef %2, i1 noundef zeroext %3) #0 {
  %5 = alloca ptr, align 8
  %6 = alloca ptr, align 8
  %7 = alloca i32, align 4
  %8 = alloca ptr, align 8
  %9 = alloca ptr, align 8
  %10 = alloca ptr, align 8
  %11 = alloca i8, align 1
  store ptr %0, ptr %8, align 8
  store ptr %1, ptr %9, align 8
  store ptr %2, ptr %10, align 8
  %12 = zext i1 %3 to i8
  store i8 %12, ptr %11, align 1
  %13 = load i8, ptr %11, align 1
  %14 = trunc i8 %13 to i1
  br i1 %14, label %15, label %20

15:                                               ; preds = %4
  %16 = load ptr, ptr %9, align 8
  %17 = call ptr @type_flatten(ptr noundef %16)
  store ptr %17, ptr %9, align 8
  %18 = load ptr, ptr %10, align 8
  %19 = call ptr @type_flatten(ptr noundef %18)
  store ptr %19, ptr %10, align 8
  br label %27

20:                                               ; preds = %4
  %21 = load ptr, ptr %9, align 8
  %22 = getelementptr inbounds %struct.Type_, ptr %21, i32 0, i32 1
  %23 = load ptr, ptr %22, align 8
  store ptr %23, ptr %9, align 8
  %24 = load ptr, ptr %10, align 8
  %25 = getelementptr inbounds %struct.Type_, ptr %24, i32 0, i32 1
  %26 = load ptr, ptr %25, align 8
  store ptr %26, ptr %10, align 8
  br label %27

27:                                               ; preds = %20, %15
  %28 = load ptr, ptr %9, align 8
  %29 = load ptr, ptr %10, align 8
  %30 = icmp eq ptr %28, %29
  br i1 %30, label %31, label %32

31:                                               ; preds = %27
  store i32 1, ptr %7, align 4
  br label %95

32:                                               ; preds = %27
  %33 = load ptr, ptr %9, align 8
  store ptr %33, ptr %5, align 8
  %34 = load ptr, ptr %5, align 8
  %35 = getelementptr inbounds %struct.Type_, ptr %34, i32 0, i32 1
  %36 = load ptr, ptr %35, align 8
  %37 = load ptr, ptr @type_void, align 8
  %38 = icmp eq ptr %36, %37
  br i1 %38, label %39, label %43

39:                                               ; preds = %32
  %40 = load ptr, ptr %10, align 8
  %41 = load ptr, ptr @type_char, align 8
  %42 = icmp eq ptr %40, %41
  br i1 %42, label %54, label %43

43:                                               ; preds = %39, %32
  %44 = load ptr, ptr %9, align 8
  %45 = load ptr, ptr @type_char, align 8
  %46 = icmp eq ptr %44, %45
  br i1 %46, label %47, label %55

47:                                               ; preds = %43
  %48 = load ptr, ptr %10, align 8
  store ptr %48, ptr %6, align 8
  %49 = load ptr, ptr %6, align 8
  %50 = getelementptr inbounds %struct.Type_, ptr %49, i32 0, i32 1
  %51 = load ptr, ptr %50, align 8
  %52 = load ptr, ptr @type_void, align 8
  %53 = icmp eq ptr %51, %52
  br i1 %53, label %54, label %55

54:                                               ; preds = %47, %39
  store i32 1, ptr %7, align 4
  br label %95

55:                                               ; preds = %47, %43
  %56 = load ptr, ptr %9, align 8
  %57 = getelementptr inbounds %struct.Type_, ptr %56, i32 0, i32 0
  %58 = load i32, ptr %57, align 8
  switch i32 %58, label %94 [
    i32 23, label %59
    i32 26, label %72
    i32 37, label %81
    i32 33, label %81
    i32 36, label %81
    i32 38, label %81
    i32 3, label %88
    i32 4, label %88
    i32 5, label %88
    i32 6, label %88
    i32 7, label %88
    i32 8, label %88
    i32 9, label %88
    i32 10, label %88
    i32 11, label %88
    i32 12, label %88
  ]

59:                                               ; preds = %55
  %60 = load ptr, ptr %10, align 8
  %61 = getelementptr inbounds %struct.Type_, ptr %60, i32 0, i32 0
  %62 = load i32, ptr %61, align 8
  %63 = icmp ne i32 %62, 23
  br i1 %63, label %64, label %65

64:                                               ; preds = %59
  store i32 0, ptr %7, align 4
  br label %95

65:                                               ; preds = %59
  %66 = load ptr, ptr %8, align 8
  %67 = load ptr, ptr %9, align 8
  %68 = load ptr, ptr %10, align 8
  %69 = load i8, ptr %11, align 1
  %70 = trunc i8 %69 to i1
  %71 = call i32 @type_is_pointer_equivalent(ptr noundef %66, ptr noundef %67, ptr noundef %68, i1 noundef zeroext %70)
  store i32 %71, ptr %7, align 4
  br label %95

72:                                               ; preds = %55
  %73 = load i8, ptr %11, align 1
  %74 = trunc i8 %73 to i1
  br i1 %74, label %75, label %80

75:                                               ; preds = %72
  %76 = load ptr, ptr %9, align 8
  %77 = load ptr, ptr %10, align 8
  %78 = call zeroext i1 @type_is_structurally_equivalent(ptr noundef %76, ptr noundef %77)
  %79 = select i1 %78, i32 1, i32 0
  store i32 %79, ptr %7, align 4
  br label %95

80:                                               ; preds = %72
  store i32 0, ptr %7, align 4
  br label %95

81:                                               ; preds = %55, %55, %55, %55
  %82 = load ptr, ptr %8, align 8
  %83 = load ptr, ptr %9, align 8
  %84 = load ptr, ptr %10, align 8
  %85 = load i8, ptr %11, align 1
  %86 = trunc i8 %85 to i1
  %87 = call i32 @type_array_is_equivalent(ptr noundef %82, ptr noundef %83, ptr noundef %84, i1 noundef zeroext %86)
  store i32 %87, ptr %7, align 4
  br label %95

88:                                               ; preds = %55, %55, %55, %55, %55, %55, %55, %55, %55, %55
  %89 = load ptr, ptr %9, align 8
  %90 = load ptr, ptr %10, align 8
  %91 = call zeroext i1 @type_is_matching_int(ptr noundef %89, ptr noundef %90)
  br i1 %91, label %92, label %93

92:                                               ; preds = %88
  store i32 2, ptr %7, align 4
  br label %95

93:                                               ; preds = %88
  br label %94

94:                                               ; preds = %93, %55
  store i32 0, ptr %7, align 4
  br label %95

95:                                               ; preds = %94, %92, %81, %80, %75, %65, %64, %54, %31
  %96 = load i32, ptr %7, align 4
  ret i32 %96
}