; Function Attrs: nounwind uwtable
define dso_local i32 @type_array_element_is_equivalent(ptr noundef %0, ptr nocapture noundef readonly %1, ptr nocapture noundef readonly %2, i1 noundef zeroext %3) local_unnamed_addr #0 {
  br i1 %3, label %.preheader, label %31

.preheader:                                       ; preds = %4, %17
  %.0.i = phi ptr [ %.1.i, %17 ], [ %1, %4 ]
  %5 = getelementptr inbounds i8, ptr %.0.i, i64 8
  %6 = load ptr, ptr %5, align 8
  %7 = load i32, ptr %6, align 8
  switch i32 %7, label %type_flatten.exit [
    i32 32, label %8
    i32 40, label %14
    i32 31, label %16
  ]

8:                                                ; preds = %.preheader
  %9 = getelementptr inbounds i8, ptr %6, i64 56
  %10 = load ptr, ptr %9, align 8
  %11 = getelementptr inbounds i8, ptr %10, i64 96
  %12 = load ptr, ptr %11, align 8
  %13 = getelementptr inbounds i8, ptr %12, i64 8
  br label %17

14:                                               ; preds = %.preheader
  %15 = getelementptr inbounds i8, ptr %6, i64 56
  br label %17

16:                                               ; preds = %.preheader
  tail call void (ptr, ...) @error_exit(ptr noundef nonnull @.str, ptr noundef nonnull @.str.17, ptr noundef nonnull @__func__.type_flatten, ptr noundef nonnull @.str.54, i32 noundef 2984) #13
  unreachable

17:                                               ; preds = %14, %8
  %.1.in.i = phi ptr [ %15, %14 ], [ %13, %8 ]
  %.1.i = load ptr, ptr %.1.in.i, align 8
  br label %.preheader

type_flatten.exit:                                ; preds = %.preheader, %30
  %.0.i31 = phi ptr [ %.1.i33, %30 ], [ %2, %.preheader ]
  %18 = getelementptr inbounds i8, ptr %.0.i31, i64 8
  %19 = load ptr, ptr %18, align 8
  %20 = load i32, ptr %19, align 8
  switch i32 %20, label %type_flatten.exit34 [
    i32 32, label %21
    i32 40, label %27
    i32 31, label %29
  ]

21:                                               ; preds = %type_flatten.exit
  %22 = getelementptr inbounds i8, ptr %19, i64 56
  %23 = load ptr, ptr %22, align 8
  %24 = getelementptr inbounds i8, ptr %23, i64 96
  %25 = load ptr, ptr %24, align 8
  %26 = getelementptr inbounds i8, ptr %25, i64 8
  br label %30

27:                                               ; preds = %type_flatten.exit
  %28 = getelementptr inbounds i8, ptr %19, i64 56
  br label %30

29:                                               ; preds = %type_flatten.exit
  tail call void (ptr, ...) @error_exit(ptr noundef nonnull @.str, ptr noundef nonnull @.str.17, ptr noundef nonnull @__func__.type_flatten, ptr noundef nonnull @.str.54, i32 noundef 2984) #13
  unreachable

30:                                               ; preds = %27, %21
  %.1.in.i32 = phi ptr [ %28, %27 ], [ %26, %21 ]
  %.1.i33 = load ptr, ptr %.1.in.i32, align 8
  br label %type_flatten.exit

31:                                               ; preds = %4
  %32 = getelementptr inbounds i8, ptr %1, i64 8
  %33 = load ptr, ptr %32, align 8
  %34 = getelementptr inbounds i8, ptr %2, i64 8
  %35 = load ptr, ptr %34, align 8
  br label %type_flatten.exit34

type_flatten.exit34:                              ; preds = %type_flatten.exit, %31
  %.029 = phi ptr [ %33, %31 ], [ %6, %type_flatten.exit ]
  %.028 = phi ptr [ %35, %31 ], [ %19, %type_flatten.exit ]
  %36 = icmp eq ptr %.029, %.028
  br i1 %36, label %74, label %37

37:                                               ; preds = %type_flatten.exit34
  %38 = getelementptr inbounds i8, ptr %.029, i64 8
  %39 = load ptr, ptr %38, align 8
  %40 = load ptr, ptr @type_void, align 8
  %41 = icmp eq ptr %39, %40
  %42 = load ptr, ptr @type_char, align 8
  %43 = icmp eq ptr %.028, %42
  %or.cond = select i1 %41, i1 %43, i1 false
  br i1 %or.cond, label %74, label %44

44:                                               ; preds = %37
  %45 = icmp eq ptr %.029, %42
  br i1 %45, label %46, label %50

46:                                               ; preds = %44
  %47 = getelementptr inbounds i8, ptr %.028, i64 8
  %48 = load ptr, ptr %47, align 8
  %49 = icmp eq ptr %48, %40
  br i1 %49, label %74, label %50

50:                                               ; preds = %46, %44
  %51 = load i32, ptr %.029, align 8
  switch i32 %51, label %73 [
    i32 23, label %52
    i32 26, label %56
    i32 37, label %60
    i32 33, label %60
    i32 36, label %60
    i32 38, label %60
    i32 3, label %62
    i32 4, label %62
    i32 5, label %62
    i32 6, label %62
    i32 7, label %62
    i32 8, label %62
    i32 9, label %62
    i32 10, label %62
    i32 11, label %62
    i32 12, label %62
  ]

52:                                               ; preds = %50
  %53 = load i32, ptr %.028, align 8
  %.not = icmp eq i32 %53, 23
  br i1 %.not, label %54, label %74

54:                                               ; preds = %52
  %55 = tail call i32 @type_is_pointer_equivalent(ptr noundef %0, ptr noundef nonnull %.029, ptr noundef nonnull %.028, i1 noundef zeroext %3)
  br label %74

56:                                               ; preds = %50
  br i1 %3, label %57, label %74

57:                                               ; preds = %56
  %58 = tail call zeroext i1 @type_is_structurally_equivalent(ptr noundef nonnull %.029, ptr noundef %.028)
  %59 = zext i1 %58 to i32
  br label %74

60:                                               ; preds = %50, %50, %50, %50
  %61 = tail call fastcc i32 @type_array_is_equivalent(ptr noundef %0, ptr noundef nonnull %.029, ptr noundef %.028, i1 noundef zeroext %3)
  br label %74

62:                                               ; preds = %50, %50, %50, %50, %50, %50, %50, %50, %50, %50
  %63 = load i32, ptr %.028, align 8
  %64 = icmp eq i32 %51, %63
  br i1 %64, label %74, label %65

65:                                               ; preds = %62
  %66 = add nsw i32 %51, -3
  %67 = icmp ult i32 %66, 5
  br i1 %67, label %68, label %type_is_matching_int.exit

68:                                               ; preds = %65
  %69 = add nuw nsw i32 %51, 5
  %70 = icmp eq i32 %69, %63
  br i1 %70, label %74, label %73

type_is_matching_int.exit:                        ; preds = %65
  %71 = add i32 %63, 5
  %72 = icmp eq i32 %71, %51
  br i1 %72, label %74, label %73

73:                                               ; preds = %68, %type_is_matching_int.exit, %50
  br label %74

74:                                               ; preds = %62, %68, %type_is_matching_int.exit, %56, %52, %46, %37, %type_flatten.exit34, %73, %60, %57, %54
  %.0 = phi i32 [ 0, %73 ], [ %61, %60 ], [ %59, %57 ], [ %55, %54 ], [ 1, %type_flatten.exit34 ], [ 1, %37 ], [ 1, %46 ], [ 0, %52 ], [ 0, %56 ], [ 2, %type_is_matching_int.exit ], [ 2, %68 ], [ 2, %62 ]
  ret i32 %.0
}